target datalayout = "e-m:e-p270:32:32-p271:32:32-p272:64:64-i64:64-i128:128-f80:128-n8:16:32:64-S128"
target triple = "x86_64-pc-linux-gnu"

@proto_register_bthid.ett = internal global [1 x ptr] [ptr @ett_bthid], align 8
@.str.31 = private unnamed_addr constant [22 x i8] c"Bluetooth HID Profile\00", align 1
@.str.32 = private unnamed_addr constant [7 x i8] c"BT HID\00", align 1
@.str.33 = private unnamed_addr constant [6 x i8] c"bthid\00", align 1
@proto_bthid = internal global i32 0, align 4
@bthid_handle = internal global ptr null, align 8
@.str.34 = private unnamed_addr constant [10 x i8] c"Bluetooth\00", align 1
@.str.35 = private unnamed_addr constant [12 x i8] c"hid.version\00", align 1
@.str.36 = private unnamed_addr constant [35 x i8] c"Bluetooth Profile HID version: 1.1\00", align 1
@.str.37 = private unnamed_addr constant [48 x i8] c"Version of profile supported by this dissector.\00", align 1
@.str.38 = private unnamed_addr constant [15 x i8] c"hid.deprecated\00", align 1
@.str.39 = private unnamed_addr constant [35 x i8] c"Show what is deprecated in HID 1.1\00", align 1
@show_deprecated = internal global i8 0, align 1

; Function Attrs: null_pointer_is_valid sspstrong uwtable
define hidden void @proto_register_bthid() #0 {
  %1 = alloca ptr, align 8
  %2 = alloca ptr, align 8
  call void @llvm.lifetime.start.p0(i64 8, ptr %1) #3
  call void @llvm.lifetime.start.p0(i64 8, ptr %2) #3
  %3 = call i32 @proto_register_protocol(ptr noundef @.str.31, ptr noundef @.str.32, ptr noundef @.str.33)
  store i32 %3, ptr @proto_bthid, align 4
  %4 = load i32, ptr @proto_bthid, align 4
  %5 = call ptr @register_dissector(ptr noundef @.str.33, ptr noundef @dissect_bthid, i32 noundef %4)
  store ptr %5, ptr @bthid_handle, align 8
  %6 = load i32, ptr @proto_bthid, align 4
  call void @proto_register_field_array(i32 noundef %6, ptr noundef @proto_register_bthid.hf, i32 noundef 15)
  call void @proto_register_subtree_array(ptr noundef @proto_register_bthid.ett, i32 noundef 1)
  %7 = load i32, ptr @proto_bthid, align 4
  %8 = call ptr @expert_register_protocol(i32 noundef %7)
  store ptr %8, ptr %2, align 8
  %9 = load ptr, ptr %2, align 8
  call void @expert_register_field_array(ptr noundef %9, ptr noundef @proto_register_bthid.ei, i32 noundef 2)
  %10 = load i32, ptr @proto_bthid, align 4
  %11 = call ptr @prefs_register_protocol_subtree(ptr noundef @.str.34, i32 noundef %10, ptr noundef null)
  store ptr %11, ptr %1, align 8
  %12 = load ptr, ptr %1, align 8
  call void @prefs_register_static_text_preference(ptr noundef %12, ptr noundef @.str.35, ptr noundef @.str.36, ptr noundef @.str.37)
  %13 = load ptr, ptr %1, align 8
  call void @prefs_register_bool_preference(ptr noundef %13, ptr noundef @.str.38, ptr noundef @.str.39, ptr noundef @.str.39, ptr noundef @show_deprecated)
  call void @llvm.lifetime.end.p0(i64 8, ptr %2) #3
  call void @llvm.lifetime.end.p0(i64 8, ptr %1) #3
  ret void
}