; Function Attrs: null_pointer_is_valid sspstrong uwtable
define hidden void @proto_register_bthid() local_unnamed_addr #0 {
  %1 = tail call i32 @proto_register_protocol(ptr noundef nonnull @.str.31, ptr noundef nonnull @.str.32, ptr noundef nonnull @.str.33)
  store i32 %1, ptr @proto_bthid, align 4
  %2 = tail call ptr @register_dissector(ptr noundef nonnull @.str.33, ptr noundef nonnull @dissect_bthid, i32 noundef %1)
  store ptr %2, ptr @bthid_handle, align 8
  %3 = load i32, ptr @proto_bthid, align 4
  tail call void @proto_register_field_array(i32 noundef %3, ptr noundef nonnull @proto_register_bthid.hf, i32 noundef 15)
  tail call void @proto_register_subtree_array(ptr noundef nonnull @proto_register_bthid.ett, i32 noundef 1)
  %4 = load i32, ptr @proto_bthid, align 4
  %5 = tail call ptr @expert_register_protocol(i32 noundef %4)
  tail call void @expert_register_field_array(ptr noundef %5, ptr noundef nonnull @proto_register_bthid.ei, i32 noundef 2)
  %6 = load i32, ptr @proto_bthid, align 4
  %7 = tail call ptr @prefs_register_protocol_subtree(ptr noundef nonnull @.str.34, i32 noundef %6, ptr noundef null)
  tail call void @prefs_register_static_text_preference(ptr noundef %7, ptr noundef nonnull @.str.35, ptr noundef nonnull @.str.36, ptr noundef nonnull @.str.37)
  tail call void @prefs_register_bool_preference(ptr noundef %7, ptr noundef nonnull @.str.38, ptr noundef nonnull @.str.39, ptr noundef nonnull @.str.39, ptr noundef nonnull @show_deprecated)
  ret void
}